Certificate:
    Data:
        Version: 3 (0x2)
        Serial Number: 1 (0x1)
        Signature Algorithm: sha256WithRSAEncryption
        Issuer: C=PT, ST=Coimbra, L=Coimbra, O=UC, OU=DEI, CN=[Coimbra]:CA/emailAddress=coimbra@mail.com
        Validity
            Not Before: Mar 11 22:51:45 2023 GMT
            Not After : Mar 10 22:51:45 2024 GMT
        Subject: C=PT, ST=Coimbra, O=UC, OU=DEI, CN=[Coimbra]:OCSP/emailAddress=coimbra@mail.com
        Subject Public Key Info:
            Public Key Algorithm: rsaEncryption
                Public-Key: (2048 bit)
                Modulus:
                    00:93:25:e1:d4:1f:36:86:58:fb:32:b3:c0:3a:3b:
                    bb:e7:40:6d:2d:46:e6:f4:e4:d8:c5:26:48:50:e6:
                    8c:63:ff:7e:24:01:ff:67:0e:64:7b:bf:d2:fc:a4:
                    54:e6:5f:02:22:cc:1b:a4:89:7b:f6:45:9e:c8:bb:
                    de:ae:88:c4:c0:80:b6:38:ed:d5:22:30:a6:98:0f:
                    18:84:70:9b:4c:e9:fd:3f:2b:3d:f9:a8:c1:34:96:
                    5e:09:ce:01:49:65:29:ea:f1:04:f2:ed:62:68:4c:
                    66:ec:b5:ae:c1:31:5f:49:8b:cd:a7:aa:bb:43:e5:
                    56:3f:5b:a9:c9:f2:c8:5b:98:e7:be:ea:5c:7d:25:
                    95:d5:a5:02:e9:28:e9:ff:1a:3d:8d:e8:c5:e4:de:
                    69:56:0c:fa:85:c5:8f:90:e6:25:5f:ad:2a:c1:b3:
                    e4:b8:fc:9b:29:a4:ad:55:be:84:43:60:5a:22:71:
                    01:cc:af:a4:64:fc:57:a5:c8:3c:ff:7c:f9:de:43:
                    bb:40:67:09:66:96:bb:f2:3d:b3:9c:54:77:4c:d8:
                    aa:dd:50:ed:38:6c:d9:56:2d:f4:b0:69:ea:a5:d1:
                    c5:90:99:d4:39:0d:9c:44:7f:7c:ee:dc:0b:77:68:
                    ba:24:78:bd:e3:01:9a:65:7f:7c:56:ec:f6:e1:14:
                    85:7f
                Exponent: 65537 (0x10001)
        X509v3 extensions:
            X509v3 Basic Constraints: 
                CA:FALSE
            X509v3 Key Usage: 
                Digital Signature, Non Repudiation, Key Encipherment
            X509v3 Extended Key Usage: 
                OCSP Signing
            X509v3 Subject Key Identifier: 
                99:B2:30:DF:97:F8:69:54:64:BE:C4:79:71:E5:53:A1:F1:D1:D0:D6
            X509v3 Authority Key Identifier: 
                DirName:/C=PT/ST=Coimbra/L=Coimbra/O=UC/OU=DEI/CN=[Coimbra]:CA/emailAddress=coimbra@mail.com
                serial:22:67:EE:BD:0A:C9:44:1A:FE:5E:4D:33:47:E4:93:6A:AD:E8:AD:41
    Signature Algorithm: sha256WithRSAEncryption
    Signature Value:
        60:8f:76:7b:4a:9a:25:f0:35:de:ab:b2:8b:a9:2f:68:52:06:
        8a:ab:16:e0:ad:80:f5:6f:dc:ed:55:6b:96:a9:d4:18:43:98:
        dc:2b:c5:36:ec:20:26:19:69:48:39:2e:43:fa:28:ac:29:60:
        51:7e:17:23:ce:0d:ef:11:7b:94:45:3d:37:16:31:89:80:01:
        97:11:3f:21:24:39:68:17:21:7f:e1:ef:4c:22:e6:6a:b4:82:
        c9:0f:3c:8c:98:9c:bc:3a:83:05:27:5c:a6:89:16:5d:37:bf:
        9d:1e:fb:f4:f4:08:73:b1:fc:00:bc:14:ea:98:af:97:5e:56:
        b8:bc:05:0e:57:1e:4d:1f:d9:52:d4:17:e2:be:38:64:b9:b4:
        b6:28:99:37:8b:f2:fe:30:18:ac:be:50:28:21:0d:37:e9:2f:
        a1:27:59:c1:c2:70:7e:a2:28:aa:78:28:a2:65:b6:15:7a:87:
        3d:a6:38:fe:f0:1d:a3:49:33:4f:7a:4c:83:7d:cd:6b:c2:5e:
        69:dd:08:9b:34:c2:f6:eb:95:31:87:48:05:4d:c2:cf:52:2f:
        15:fc:d3:ee:88:3a:54:41:26:6f:3b:90:9d:57:4c:30:4b:1c:
        6b:76:07:39:a3:1e:c5:f8:45:34:9b:c9:a9:6c:dc:a5:51:ac:
        1a:b4:6b:3c
-----BEGIN CERTIFICATE-----
MIIEdjCCA16gAwIBAgIBATANBgkqhkiG9w0BAQsFADCBhDELMAkGA1UEBhMCUFQx
EDAOBgNVBAgMB0NvaW1icmExEDAOBgNVBAcMB0NvaW1icmExCzAJBgNVBAoMAlVD
MQwwCgYDVQQLDANERUkxFTATBgNVBAMMDFtDb2ltYnJhXTpDQTEfMB0GCSqGSIb3
DQEJARYQY29pbWJyYUBtYWlsLmNvbTAeFw0yMzAzMTEyMjUxNDVaFw0yNDAzMTAy
MjUxNDVaMHQxCzAJBgNVBAYTAlBUMRAwDgYDVQQIDAdDb2ltYnJhMQswCQYDVQQK
DAJVQzEMMAoGA1UECwwDREVJMRcwFQYDVQQDDA5bQ29pbWJyYV06T0NTUDEfMB0G
CSqGSIb3DQEJARYQY29pbWJyYUBtYWlsLmNvbTCCASIwDQYJKoZIhvcNAQEBBQAD
ggEPADCCAQoCggEBAJMl4dQfNoZY+zKzwDo7u+dAbS1G5vTk2MUmSFDmjGP/fiQB
/2cOZHu/0vykVOZfAiLMG6SJe/ZFnsi73q6IxMCAtjjt1SIwppgPGIRwm0zp/T8r
PfmowTSWXgnOAUllKerxBPLtYmhMZuy1rsExX0mLzaequ0PlVj9bqcnyyFuY577q
XH0lldWlAuko6f8aPY3oxeTeaVYM+oXFj5DmJV+tKsGz5Lj8mymkrVW+hENgWiJx
AcyvpGT8V6XIPP98+d5Du0BnCWaWu/I9s5xUd0zYqt1Q7Ths2VYt9LBp6qXRxZCZ
1DkNnER/fO7cC3douiR4veMBmmV/fFbs9uEUhX8CAwEAAaOCAQAwgf0wCQYDVR0T
BAIwADALBgNVHQ8EBAMCBeAwEwYDVR0lBAwwCgYIKwYBBQUHAwkwHQYDVR0OBBYE
FJmyMN+X+GlUZL7EeXHlU6Hx0dDWMIGuBgNVHSMEgaYwgaOhgYqkgYcwgYQxCzAJ
BgNVBAYTAlBUMRAwDgYDVQQIDAdDb2ltYnJhMRAwDgYDVQQHDAdDb2ltYnJhMQsw
CQYDVQQKDAJVQzEMMAoGA1UECwwDREVJMRUwEwYDVQQDDAxbQ29pbWJyYV06Q0Ex
HzAdBgkqhkiG9w0BCQEWEGNvaW1icmFAbWFpbC5jb22CFCJn7r0KyUQa/l5NM0fk
k2qt6K1BMA0GCSqGSIb3DQEBCwUAA4IBAQBgj3Z7Spol8DXeq7KLqS9oUgaKqxbg
rYD1b9ztVWuWqdQYQ5jcK8U27CAmGWlIOS5D+iisKWBRfhcjzg3vEXuURT03FjGJ
gAGXET8hJDloFyF/4e9MIuZqtILJDzyMmJy8OoMFJ1ymiRZdN7+dHvv09AhzsfwA
vBTqmK+XXla4vAUOVx5NH9lS1BfivjhkubS2KJk3i/L+MBisvlAoIQ036S+hJ1nB
wnB+oiiqeCiiZbYVeoc9pjj+8B2jSTNPekyDfc1rwl5p3QibNML265Uxh0gFTcLP
Ui8V/NPuiDpUQSZvO5CdV0wwSxxrdgc5ox7F+EU0m8mpbNylUawatGs8
-----END CERTIFICATE-----
