Certificate:
    Data:
        Version: 3 (0x2)
        Serial Number: 2 (0x2)
        Signature Algorithm: sha256WithRSAEncryption
        Issuer: C=PT, ST=Coimbra, L=Coimbra, O=UC, OU=DEI, CN=[Coimbra]:CA/emailAddress=coimbra@mail.com
        Validity
            Not Before: Mar 11 22:51:45 2023 GMT
            Not After : Mar 10 22:51:45 2024 GMT
        Subject: C=PT, ST=Coimbra, O=UC, OU=DEI, CN=[Coimbra]:Local/emailAddress=coimbra@mail.com
        Subject Public Key Info:
            Public Key Algorithm: rsaEncryption
                Public-Key: (2048 bit)
                Modulus:
                    00:af:83:b8:49:79:01:fd:71:db:31:b3:dd:79:30:
                    05:83:f1:7d:80:85:de:40:28:b6:36:72:40:1d:96:
                    25:00:43:bf:f4:5c:9a:7f:e4:8b:fd:43:88:b9:0f:
                    9d:97:4f:b2:9b:63:d1:97:5b:b8:28:c2:e2:38:6a:
                    e6:19:05:9e:33:2a:03:e3:6e:77:13:fb:a9:f4:88:
                    ce:bd:cf:f1:38:e2:cc:4f:44:14:04:8c:08:56:a8:
                    08:ff:c1:38:c5:39:64:24:62:c3:ef:02:8a:ab:b8:
                    ac:e5:5b:2c:d6:86:f8:3c:b4:65:04:b6:28:02:13:
                    73:f0:d7:ec:00:dc:e2:89:a3:eb:bc:0a:fb:30:75:
                    03:4c:03:ce:53:81:2d:20:65:de:2b:fd:db:9e:be:
                    3e:12:3f:d5:ea:1a:ab:43:cd:1e:43:b3:50:27:a5:
                    67:70:6d:61:e1:05:03:1b:2e:41:22:e2:8f:f0:f5:
                    16:64:be:a9:4e:4d:c1:cc:6c:1a:fa:bb:dd:fc:9e:
                    f8:6f:a4:11:68:d3:d8:fc:5b:fc:94:85:ee:b4:ad:
                    1a:5a:2e:f8:61:ed:1c:a1:e5:43:34:9d:2a:5b:18:
                    17:91:c2:e5:6f:89:0a:ad:48:73:23:38:fc:5c:33:
                    90:d2:f8:50:8c:4d:8c:ee:74:88:49:33:67:2f:04:
                    fb:dd
                Exponent: 65537 (0x10001)
        X509v3 extensions:
            X509v3 Basic Constraints: 
                CA:FALSE
            Netscape Cert Type: 
                SSL Server
            Netscape Comment: 
                OpenSSL Generated Server Certificate
            X509v3 Subject Key Identifier: 
                BB:2D:49:7A:90:A5:C1:F6:E2:05:B0:30:14:1C:46:19:8D:77:01:EC
            X509v3 Authority Key Identifier: 
                DirName:/C=PT/ST=Coimbra/L=Coimbra/O=UC/OU=DEI/CN=[Coimbra]:CA/emailAddress=coimbra@mail.com
                serial:22:67:EE:BD:0A:C9:44:1A:FE:5E:4D:33:47:E4:93:6A:AD:E8:AD:41
            X509v3 Extended Key Usage: 
                TLS Web Server Authentication
            X509v3 Key Usage: 
                Digital Signature, Key Encipherment
            Authority Information Access: 
                OCSP - URI:http://ocsp_stipl1.pt:8081
    Signature Algorithm: sha256WithRSAEncryption
    Signature Value:
        24:a5:37:ba:77:5f:12:8a:a9:78:95:de:dd:7c:28:7b:6a:44:
        40:a2:89:05:37:c1:31:10:ca:e9:5c:71:8e:f6:26:52:57:87:
        fa:22:b8:98:19:d0:78:fe:d0:dc:bf:d7:eb:9e:86:e7:53:08:
        50:0e:54:e6:ca:83:4d:ce:48:21:ba:ca:01:28:96:47:64:2a:
        8f:83:ad:33:ea:97:34:97:25:dc:02:7d:92:8f:95:e8:f2:4b:
        cb:9d:26:f6:98:b9:7e:3c:c4:db:e3:38:21:fa:44:a9:6a:5f:
        d1:2e:fe:22:5b:6b:09:ed:3d:fe:98:ca:a0:0d:ad:3b:04:9a:
        d8:58:c6:19:96:58:c9:ef:89:cf:cb:20:17:f2:6a:9b:f1:bf:
        5e:7f:26:6e:04:50:33:5b:4c:4b:e4:68:31:ee:cd:ad:1e:76:
        f6:18:ee:16:a5:01:40:74:a2:1e:2d:32:b0:15:e1:3a:fb:1d:
        92:94:8d:99:f3:f6:c9:1e:a4:1a:f4:b6:be:71:e1:12:e9:a2:
        d7:b0:64:89:35:0e:81:2c:72:7e:e4:55:84:74:bb:6b:45:0d:
        d6:2d:70:87:81:1e:18:13:c1:9a:31:f8:71:c8:8c:67:d0:de:
        1b:9f:27:3e:10:6d:4e:af:30:6e:3e:ce:fa:ad:de:24:51:1e:
        92:26:fc:60
-----BEGIN CERTIFICATE-----
MIIE+DCCA+CgAwIBAgIBAjANBgkqhkiG9w0BAQsFADCBhDELMAkGA1UEBhMCUFQx
EDAOBgNVBAgMB0NvaW1icmExEDAOBgNVBAcMB0NvaW1icmExCzAJBgNVBAoMAlVD
MQwwCgYDVQQLDANERUkxFTATBgNVBAMMDFtDb2ltYnJhXTpDQTEfMB0GCSqGSIb3
DQEJARYQY29pbWJyYUBtYWlsLmNvbTAeFw0yMzAzMTEyMjUxNDVaFw0yNDAzMTAy
MjUxNDVaMHUxCzAJBgNVBAYTAlBUMRAwDgYDVQQIDAdDb2ltYnJhMQswCQYDVQQK
DAJVQzEMMAoGA1UECwwDREVJMRgwFgYDVQQDDA9bQ29pbWJyYV06TG9jYWwxHzAd
BgkqhkiG9w0BCQEWEGNvaW1icmFAbWFpbC5jb20wggEiMA0GCSqGSIb3DQEBAQUA
A4IBDwAwggEKAoIBAQCvg7hJeQH9cdsxs915MAWD8X2Ahd5AKLY2ckAdliUAQ7/0
XJp/5Iv9Q4i5D52XT7KbY9GXW7gowuI4auYZBZ4zKgPjbncT+6n0iM69z/E44sxP
RBQEjAhWqAj/wTjFOWQkYsPvAoqruKzlWyzWhvg8tGUEtigCE3Pw1+wA3OKJo+u8
CvswdQNMA85TgS0gZd4r/duevj4SP9XqGqtDzR5Ds1AnpWdwbWHhBQMbLkEi4o/w
9RZkvqlOTcHMbBr6u938nvhvpBFo09j8W/yUhe60rRpaLvhh7Ryh5UM0nSpbGBeR
wuVviQqtSHMjOPxcM5DS+FCMTYzudIhJM2cvBPvdAgMBAAGjggGBMIIBfTAJBgNV
HRMEAjAAMBEGCWCGSAGG+EIBAQQEAwIGQDAzBglghkgBhvhCAQ0EJhYkT3BlblNT
TCBHZW5lcmF0ZWQgU2VydmVyIENlcnRpZmljYXRlMB0GA1UdDgQWBBS7LUl6kKXB
9uIFsDAUHEYZjXcB7DCBrgYDVR0jBIGmMIGjoYGKpIGHMIGEMQswCQYDVQQGEwJQ
VDEQMA4GA1UECAwHQ29pbWJyYTEQMA4GA1UEBwwHQ29pbWJyYTELMAkGA1UECgwC
VUMxDDAKBgNVBAsMA0RFSTEVMBMGA1UEAwwMW0NvaW1icmFdOkNBMR8wHQYJKoZI
hvcNAQkBFhBjb2ltYnJhQG1haWwuY29tghQiZ+69CslEGv5eTTNH5JNqreitQTAT
BgNVHSUEDDAKBggrBgEFBQcDATALBgNVHQ8EBAMCBaAwNgYIKwYBBQUHAQEEKjAo
MCYGCCsGAQUFBzABhhpodHRwOi8vb2NzcF9zdGlwbDEucHQ6ODA4MTANBgkqhkiG
9w0BAQsFAAOCAQEAJKU3undfEoqpeJXe3Xwoe2pEQKKJBTfBMRDK6VxxjvYmUleH
+iK4mBnQeP7Q3L/X656G51MIUA5U5sqDTc5IIbrKASiWR2Qqj4OtM+qXNJcl3AJ9
ko+V6PJLy50m9pi5fjzE2+M4IfpEqWpf0S7+IltrCe09/pjKoA2tOwSa2FjGGZZY
ye+Jz8sgF/Jqm/G/Xn8mbgRQM1tMS+RoMe7NrR529hjuFqUBQHSiHi0ysBXhOvsd
kpSNmfP2yR6kGvS2vnHhEumi17BkiTUOgSxyfuRVhHS7a0UN1i1wh4EeGBPBmjH4
cciMZ9DeG58nPhBtTq8wbj7O+q3eJFEekib8YA==
-----END CERTIFICATE-----
