Certificate:
    Data:
        Version: 3 (0x2)
        Serial Number: 6 (0x6)
        Signature Algorithm: sha256WithRSAEncryption
        Issuer: C=PT, ST=Coimbra, L=Coimbra, O=UC, OU=DEI, CN=[Coimbra]:CA/emailAddress=coimbra@mail.com
        Validity
            Not Before: Mar 11 22:51:46 2023 GMT
            Not After : Mar 10 22:51:46 2024 GMT
        Subject: C=PT, ST=Coimbra, O=UC, OU=DEI, CN=[Lisboa]:Apache_User/emailAddress=lisboa@mail.com
        Subject Public Key Info:
            Public Key Algorithm: rsaEncryption
                Public-Key: (2048 bit)
                Modulus:
                    00:e8:dd:4a:44:7a:59:9f:48:c2:33:5f:91:b8:e2:
                    68:6e:7e:bc:b5:d6:70:46:da:88:cc:bd:5e:1e:ea:
                    07:a4:8f:9b:2f:c5:63:65:9b:bd:85:ab:f4:01:5b:
                    8d:f7:dc:59:a4:32:91:28:51:87:54:c8:fb:14:b0:
                    3d:06:1e:bd:b6:a0:92:88:e4:3a:38:cb:2d:e0:d0:
                    e9:1a:65:47:82:ee:71:54:00:ba:e8:c0:7a:f3:4b:
                    04:1e:9c:4d:ae:1b:74:d5:20:e6:d2:a6:5d:84:c9:
                    74:ab:1e:a8:a6:29:7c:6e:ce:f9:7f:3f:7a:eb:51:
                    49:ae:0b:6b:27:88:66:93:24:52:64:2d:94:3d:0f:
                    80:88:c8:a8:67:a1:61:f4:e1:d2:5c:23:77:d6:39:
                    b2:52:8b:41:61:2a:1c:d5:e7:85:7a:65:ef:83:a7:
                    b4:b2:99:b0:2c:2a:9b:14:1b:26:f5:b0:5b:4e:cf:
                    8e:5d:94:f2:3f:8e:8a:64:0c:ff:6c:da:2d:7b:84:
                    c3:22:e7:9b:9a:55:ba:cc:ac:42:d0:3f:05:b3:07:
                    88:ed:c0:c7:2b:25:8d:00:19:51:9e:02:43:92:af:
                    45:c2:42:13:06:c8:6f:89:0b:c7:fc:09:81:b7:42:
                    37:a7:f5:db:4c:3d:f5:2b:af:43:d7:4e:b1:35:5b:
                    4b:8d
                Exponent: 65537 (0x10001)
        X509v3 extensions:
            X509v3 Basic Constraints: 
                CA:FALSE
            X509v3 Subject Key Identifier: 
                CF:D4:E9:47:4D:48:71:32:20:27:35:00:AA:80:73:5A:AF:F1:EA:37
            X509v3 Authority Key Identifier: 
                DirName:/C=PT/ST=Coimbra/L=Coimbra/O=UC/OU=DEI/CN=[Coimbra]:CA/emailAddress=coimbra@mail.com
                serial:22:67:EE:BD:0A:C9:44:1A:FE:5E:4D:33:47:E4:93:6A:AD:E8:AD:41
            Authority Information Access: 
                OCSP - URI:http://ocsp_stipl1.pt:8081
    Signature Algorithm: sha256WithRSAEncryption
    Signature Value:
        27:9f:14:74:05:97:4e:0b:d6:d2:fa:ba:e7:59:6f:16:fb:33:
        78:c1:6a:b9:89:f9:0e:9f:76:02:e4:f1:1b:ba:a6:b5:d4:63:
        ab:bd:5a:f6:15:4d:90:5e:52:0b:ee:a1:58:bc:df:b6:8c:b9:
        6b:5f:e1:b5:21:01:23:88:06:b0:fe:96:f8:d0:2a:91:9c:70:
        8a:e3:dc:37:a8:f8:19:37:31:e9:74:33:fc:9e:7c:31:c1:c2:
        ab:c1:0b:ef:c1:c3:4f:7b:5d:78:83:dc:c4:c3:a9:81:f1:80:
        f9:2f:48:a6:c7:f0:1f:36:b7:24:63:21:63:06:7d:c4:72:93:
        77:31:bd:fc:4e:e7:bc:d7:4f:77:ee:54:1d:9e:3e:4c:f6:7a:
        43:67:4d:53:c8:36:18:c3:68:97:15:c4:f5:84:11:db:d8:3c:
        65:2f:f4:86:eb:e9:20:bf:b2:9e:fe:a4:b6:1d:af:e5:43:24:
        f6:85:b8:d8:8f:76:8a:51:9f:eb:d9:96:83:ec:65:b0:60:ed:
        61:f3:b5:59:88:50:32:85:b1:f6:e9:76:d4:2f:c0:f0:1e:d0:
        b9:a0:49:e9:de:51:34:22:86:7f:ec:48:f0:23:32:ab:11:70:
        bd:8f:64:e8:ba:df:21:da:cd:3e:85:66:f5:64:90:d0:1d:37:
        47:46:81:64
-----BEGIN CERTIFICATE-----
MIIEkjCCA3qgAwIBAgIBBjANBgkqhkiG9w0BAQsFADCBhDELMAkGA1UEBhMCUFQx
EDAOBgNVBAgMB0NvaW1icmExEDAOBgNVBAcMB0NvaW1icmExCzAJBgNVBAoMAlVD
MQwwCgYDVQQLDANERUkxFTATBgNVBAMMDFtDb2ltYnJhXTpDQTEfMB0GCSqGSIb3
DQEJARYQY29pbWJyYUBtYWlsLmNvbTAeFw0yMzAzMTEyMjUxNDZaFw0yNDAzMTAy
MjUxNDZaMHkxCzAJBgNVBAYTAlBUMRAwDgYDVQQIDAdDb2ltYnJhMQswCQYDVQQK
DAJVQzEMMAoGA1UECwwDREVJMR0wGwYDVQQDDBRbTGlzYm9hXTpBcGFjaGVfVXNl
cjEeMBwGCSqGSIb3DQEJARYPbGlzYm9hQG1haWwuY29tMIIBIjANBgkqhkiG9w0B
AQEFAAOCAQ8AMIIBCgKCAQEA6N1KRHpZn0jCM1+RuOJobn68tdZwRtqIzL1eHuoH
pI+bL8VjZZu9hav0AVuN99xZpDKRKFGHVMj7FLA9Bh69tqCSiOQ6OMst4NDpGmVH
gu5xVAC66MB680sEHpxNrht01SDm0qZdhMl0qx6opil8bs75fz9661FJrgtrJ4hm
kyRSZC2UPQ+AiMioZ6Fh9OHSXCN31jmyUotBYSoc1eeFemXvg6e0spmwLCqbFBsm
9bBbTs+OXZTyP46KZAz/bNote4TDIuebmlW6zKxC0D8FsweI7cDHKyWNABlRngJD
kq9FwkITBshviQvH/AmBt0I3p/XbTD31K69D106xNVtLjQIDAQABo4IBFzCCARMw
CQYDVR0TBAIwADAdBgNVHQ4EFgQUz9TpR01IcTIgJzUAqoBzWq/x6jcwga4GA1Ud
IwSBpjCBo6GBiqSBhzCBhDELMAkGA1UEBhMCUFQxEDAOBgNVBAgMB0NvaW1icmEx
EDAOBgNVBAcMB0NvaW1icmExCzAJBgNVBAoMAlVDMQwwCgYDVQQLDANERUkxFTAT
BgNVBAMMDFtDb2ltYnJhXTpDQTEfMB0GCSqGSIb3DQEJARYQY29pbWJyYUBtYWls
LmNvbYIUImfuvQrJRBr+Xk0zR+STaq3orUEwNgYIKwYBBQUHAQEEKjAoMCYGCCsG
AQUFBzABhhpodHRwOi8vb2NzcF9zdGlwbDEucHQ6ODA4MTANBgkqhkiG9w0BAQsF
AAOCAQEAJ58UdAWXTgvW0vq651lvFvszeMFquYn5Dp92AuTxG7qmtdRjq71a9hVN
kF5SC+6hWLzftoy5a1/htSEBI4gGsP6W+NAqkZxwiuPcN6j4GTcx6XQz/J58McHC
q8EL78HDT3tdeIPcxMOpgfGA+S9IpsfwHza3JGMhYwZ9xHKTdzG9/E7nvNdPd+5U
HZ4+TPZ6Q2dNU8g2GMNolxXE9YQR29g8ZS/0huvpIL+ynv6kth2v5UMk9oW42I92
ilGf69mWg+xlsGDtYfO1WYhQMoWx9ul21C/A8B7QuaBJ6d5RNCKGf+xI8CMyqxFw
vY9k6LrfIdrNPoVm9WSQ0B03R0aBZA==
-----END CERTIFICATE-----
