Certificate:
    Data:
        Version: 3 (0x2)
        Serial Number: 7 (0x7)
        Signature Algorithm: sha256WithRSAEncryption
        Issuer: C=PT, ST=Coimbra, L=Coimbra, O=UC, OU=DEI, CN=[Coimbra]:CA/emailAddress=coimbra@mail.com
        Validity
            Not Before: Mar 11 22:51:46 2023 GMT
            Not After : Mar 10 22:51:46 2024 GMT
        Subject: C=PT, ST=Coimbra, O=UC, OU=DEI, CN=[Lisboa]:Apache_Revo/emailAddress=lisboa@mail.com
        Subject Public Key Info:
            Public Key Algorithm: rsaEncryption
                Public-Key: (2048 bit)
                Modulus:
                    00:bc:5c:52:44:3a:d2:bc:33:e4:5f:b0:16:e8:36:
                    9e:84:29:3d:d9:df:17:c4:97:dd:62:26:b5:fc:c4:
                    07:ff:79:77:ac:63:31:11:e5:4c:af:0b:7d:e6:5e:
                    e2:1a:cf:11:c2:a7:e8:e0:40:73:82:9c:a4:f0:ae:
                    23:15:fd:c7:73:f3:ce:10:d8:80:a0:b1:02:85:80:
                    e9:df:1a:37:22:a4:fa:6e:68:a6:3c:fa:56:70:f5:
                    9d:08:f1:c1:aa:77:eb:b9:8f:9c:92:dc:8b:92:1c:
                    5e:19:b2:8f:f2:2f:ee:e9:4f:81:75:12:14:c4:32:
                    d9:b2:f9:cc:92:97:15:11:f9:96:ea:bd:f3:b5:f0:
                    fc:71:2a:ed:b3:cc:b9:cf:fd:87:57:07:9f:c6:30:
                    da:ab:0d:8c:e1:8b:1d:72:c4:10:72:b6:d2:85:75:
                    59:23:5e:09:95:ee:11:45:28:69:1e:f2:24:b9:3c:
                    60:36:0f:0e:ac:45:86:6c:41:1b:36:61:e4:75:57:
                    94:7d:05:51:c4:fb:57:37:d4:54:a5:24:7e:bc:e0:
                    a8:4c:2f:3b:7e:f4:b4:db:bb:6d:f8:f2:e0:61:7b:
                    ec:7e:13:dc:e4:a1:ae:27:d9:dd:f2:38:df:43:32:
                    9a:1c:6f:f5:f6:07:da:eb:cc:41:71:a1:69:c8:76:
                    f2:9d
                Exponent: 65537 (0x10001)
        X509v3 extensions:
            X509v3 Basic Constraints: 
                CA:FALSE
            X509v3 Subject Key Identifier: 
                0A:F2:35:A5:3C:8F:46:46:30:50:52:B2:E1:8E:90:1B:AB:2D:EC:5C
            X509v3 Authority Key Identifier: 
                DirName:/C=PT/ST=Coimbra/L=Coimbra/O=UC/OU=DEI/CN=[Coimbra]:CA/emailAddress=coimbra@mail.com
                serial:22:67:EE:BD:0A:C9:44:1A:FE:5E:4D:33:47:E4:93:6A:AD:E8:AD:41
            Authority Information Access: 
                OCSP - URI:http://ocsp_stipl1.pt:8081
    Signature Algorithm: sha256WithRSAEncryption
    Signature Value:
        65:39:fd:ef:ee:e3:ca:8a:fd:d3:de:c5:ad:a9:5b:0e:0d:64:
        2d:64:a7:f0:9b:17:95:e5:4c:d9:8b:00:48:a9:d1:38:59:a7:
        44:e2:0a:ce:5a:2b:8b:2c:2e:a2:7c:bb:77:9e:49:39:76:bf:
        5f:af:a6:8e:0c:3d:8a:e2:08:8a:b9:c8:69:ed:90:b8:a1:8f:
        f7:cd:f7:12:a1:2f:02:16:a2:f8:87:b6:a1:31:b3:28:b7:d7:
        34:cc:67:47:42:10:fe:0c:ab:d7:b3:b3:76:09:39:4d:de:2e:
        aa:01:25:3b:21:87:e2:d3:f1:57:e0:ce:63:34:d6:16:9a:70:
        8f:59:87:2f:28:12:75:2b:76:bd:b9:38:8e:f6:ca:4c:b0:67:
        26:4c:a4:e8:eb:e2:e6:38:aa:74:30:d9:03:0d:88:c9:55:72:
        1b:ae:6b:5b:0e:b8:0d:26:90:9d:ac:4d:bb:77:e1:f3:fb:13:
        5d:67:b8:24:bb:17:c0:72:ae:1d:64:5e:d7:47:2f:d0:c4:45:
        a5:57:74:f3:c2:78:65:19:f0:1c:f8:cb:fb:a8:39:3a:d6:69:
        c8:56:4e:02:24:bb:1a:74:40:95:2f:8f:4d:de:93:7f:3a:bc:
        61:c7:d1:47:56:e2:39:c5:bc:80:5b:8b:08:2c:73:00:58:1c:
        a9:fd:91:be
-----BEGIN CERTIFICATE-----
MIIEkjCCA3qgAwIBAgIBBzANBgkqhkiG9w0BAQsFADCBhDELMAkGA1UEBhMCUFQx
EDAOBgNVBAgMB0NvaW1icmExEDAOBgNVBAcMB0NvaW1icmExCzAJBgNVBAoMAlVD
MQwwCgYDVQQLDANERUkxFTATBgNVBAMMDFtDb2ltYnJhXTpDQTEfMB0GCSqGSIb3
DQEJARYQY29pbWJyYUBtYWlsLmNvbTAeFw0yMzAzMTEyMjUxNDZaFw0yNDAzMTAy
MjUxNDZaMHkxCzAJBgNVBAYTAlBUMRAwDgYDVQQIDAdDb2ltYnJhMQswCQYDVQQK
DAJVQzEMMAoGA1UECwwDREVJMR0wGwYDVQQDDBRbTGlzYm9hXTpBcGFjaGVfUmV2
bzEeMBwGCSqGSIb3DQEJARYPbGlzYm9hQG1haWwuY29tMIIBIjANBgkqhkiG9w0B
AQEFAAOCAQ8AMIIBCgKCAQEAvFxSRDrSvDPkX7AW6DaehCk92d8XxJfdYia1/MQH
/3l3rGMxEeVMrwt95l7iGs8Rwqfo4EBzgpyk8K4jFf3Hc/POENiAoLEChYDp3xo3
IqT6bmimPPpWcPWdCPHBqnfruY+cktyLkhxeGbKP8i/u6U+BdRIUxDLZsvnMkpcV
EfmW6r3ztfD8cSrts8y5z/2HVwefxjDaqw2M4YsdcsQQcrbShXVZI14Jle4RRShp
HvIkuTxgNg8OrEWGbEEbNmHkdVeUfQVRxPtXN9RUpSR+vOCoTC87fvS027tt+PLg
YXvsfhPc5KGuJ9nd8jjfQzKaHG/19gfa68xBcaFpyHbynQIDAQABo4IBFzCCARMw
CQYDVR0TBAIwADAdBgNVHQ4EFgQUCvI1pTyPRkYwUFKy4Y6QG6st7Fwwga4GA1Ud
IwSBpjCBo6GBiqSBhzCBhDELMAkGA1UEBhMCUFQxEDAOBgNVBAgMB0NvaW1icmEx
EDAOBgNVBAcMB0NvaW1icmExCzAJBgNVBAoMAlVDMQwwCgYDVQQLDANERUkxFTAT
BgNVBAMMDFtDb2ltYnJhXTpDQTEfMB0GCSqGSIb3DQEJARYQY29pbWJyYUBtYWls
LmNvbYIUImfuvQrJRBr+Xk0zR+STaq3orUEwNgYIKwYBBQUHAQEEKjAoMCYGCCsG
AQUFBzABhhpodHRwOi8vb2NzcF9zdGlwbDEucHQ6ODA4MTANBgkqhkiG9w0BAQsF
AAOCAQEAZTn97+7jyor9097FralbDg1kLWSn8JsXleVM2YsASKnROFmnROIKzlor
iywuony7d55JOXa/X6+mjgw9iuIIirnIae2QuKGP9833EqEvAhai+Ie2oTGzKLfX
NMxnR0IQ/gyr17Ozdgk5Td4uqgElOyGH4tPxV+DOYzTWFppwj1mHLygSdSt2vbk4
jvbKTLBnJkyk6Ovi5jiqdDDZAw2IyVVyG65rWw64DSaQnaxNu3fh8/sTXWe4JLsX
wHKuHWRe10cv0MRFpVd088J4ZRnwHPjL+6g5OtZpyFZOAiS7GnRAlS+PTd6Tfzq8
YcfRR1biOcW8gFuLCCxzAFgcqf2Rvg==
-----END CERTIFICATE-----
